ccopy_reg
_reconstructor
p0
(cuck_progressmonitor
ProgressProfile
p1
c__builtin__
object
p2
Ntp3
Rp4
(dp5
S'tick_str'
p6
S'tick'
p7
sS'weights'
p8
(lp9
F140.30361700057983
aF32.002779960632324
aF141.1385440826416
aF0.0001900196075439453
aF5.029038906097412
aF4.435181140899658
aF0.00011181831359863281
aF0.000102996826171875
aF9.918212890625e-05
aF437.75435495376587
aF137.59749484062195
aF0.0003921985626220703
aF0.0002529621124267578
asS'n'
p10
I13
sb.