ccopy_reg
_reconstructor
p0
(cuck_progressmonitor
ProgressProfile
p1
c__builtin__
object
p2
Ntp3
Rp4
(dp5
S'tick_str'
p6
S'tick'
p7
sS'weights'
p8
(lp9
F0.004685163497924805
aF0.0024399757385253906
aF0.011143922805786133
aF7.805527925491333
aF29.555283069610596
aF131.97048807144165
aF0.0001919269561767578
aF6.974400997161865
aF4.130089998245239
aF9.894371032714844e-05
aF0.0001010894775390625
aF9.202957153320312e-05
aF427.54695892333984
asS'n'
p10
I13
sb.